target datalayout = "e-m:e-p270:32:32-p271:32:32-p272:64:64-i64:64-i128:128-f80:128-n8:16:32:64-S128"
target triple = "x86_64-pc-linux-gnu"

%"struct.icu_77::FormattedStringBuilder::Field" = type { i8 }
%"struct.icu_77::number::impl::UFormattedNumberRangeImpl" = type { %"struct.icu_77::UFormattedValueImpl", %"class.icu_77::IcuCApiHelper.0", [4 x i8], %"class.icu_77::number::FormattedNumberRange", %"class.icu_77::number::impl::UFormattedNumberRangeData" }
%"struct.icu_77::UFormattedValueImpl" = type { %"class.icu_77::IcuCApiHelper", ptr }
%"class.icu_77::IcuCApiHelper" = type { i32 }
%"class.icu_77::IcuCApiHelper.0" = type { i32 }
%"class.icu_77::number::FormattedNumberRange" = type <{ %"class.icu_77::FormattedValue", ptr, i32, [4 x i8] }>
%"class.icu_77::FormattedValue" = type { ptr }
%"class.icu_77::number::impl::UFormattedNumberRangeData" = type { %"class.icu_77::FormattedValueStringBuilderImpl.base", [4 x i8], %"class.icu_77::number::impl::DecimalQuantity", %"class.icu_77::number::impl::DecimalQuantity", i32, [4 x i8] }
%"class.icu_77::FormattedValueStringBuilderImpl.base" = type <{ %"class.icu_77::FormattedValue", %"class.icu_77::FormattedStringBuilder", %"struct.icu_77::FormattedStringBuilder::Field", [7 x i8], %"class.icu_77::MaybeStackArray.3", i32 }>
%"class.icu_77::FormattedStringBuilder" = type { i8, %"union.icu_77::FormattedStringBuilder::ValueOrHeapArray", %"union.icu_77::FormattedStringBuilder::ValueOrHeapArray.1", i32, i32 }
%"union.icu_77::FormattedStringBuilder::ValueOrHeapArray" = type { %struct.anon, [64 x i8] }
%struct.anon = type { ptr, i32 }
%"union.icu_77::FormattedStringBuilder::ValueOrHeapArray.1" = type { %struct.anon.2, [24 x i8] }
%struct.anon.2 = type { ptr, i32 }
%"class.icu_77::MaybeStackArray.3" = type { ptr, i32, i8, [8 x %"struct.icu_77::SpanInfo"] }
%"struct.icu_77::SpanInfo" = type { i32, i32, i32, i32 }
%"class.icu_77::number::impl::DecimalQuantity" = type <{ %"class.icu_77::IFixedDecimal", i8, [3 x i8], i32, i32, i8, i8, [2 x i8], double, i32, i32, i32, i32, %union.anon, i8, i8, [6 x i8] }>
%"class.icu_77::IFixedDecimal" = type { ptr }
%union.anon = type { %struct.anon.4 }
%struct.anon.4 = type { ptr, i32 }

; Function Attrs: inlinehint mustprogress nounwind uwtable
define internal noundef signext i8 @_ZL9U_FAILURE10UErrorCode(i32 noundef %0) #2 {
  %2 = alloca i32, align 4
  store i32 %0, ptr %2, align 4, !tbaa !15
  %3 = load i32, ptr %2, align 4, !tbaa !15
  %4 = icmp sgt i32 %3, 0
  %5 = zext i1 %4 to i8
  ret i8 %5
}

; Function Attrs: mustprogress nounwind uwtable
define linkonce_odr noundef ptr @_ZN6icu_7713IcuCApiHelperI21UFormattedNumberRangeNS_6number4impl25UFormattedNumberRangeImplELi1178881536EE8validateEPKS1_R10UErrorCode(ptr noundef %0, ptr noundef nonnull align 4 dereferenceable(4) %1) #0 comdat align 2 {
  %3 = alloca ptr, align 8
  %4 = alloca ptr, align 8
  %5 = alloca ptr, align 8
  %6 = alloca ptr, align 8
  %7 = alloca i32, align 4
  store ptr %0, ptr %4, align 8, !tbaa !64
  store ptr %1, ptr %5, align 8, !tbaa !22
  %8 = load ptr, ptr %5, align 8, !tbaa !22
  %9 = load i32, ptr %8, align 4, !tbaa !15
  %10 = call noundef signext i8 @_ZL9U_FAILURE10UErrorCode(i32 noundef %9)
  %11 = icmp ne i8 %10, 0
  br i1 %11, label %12, label %13

12:                                               ; preds = %2
  store ptr null, ptr %3, align 8
  br label %34

13:                                               ; preds = %2
  %14 = load ptr, ptr %4, align 8, !tbaa !64
  %15 = icmp eq ptr %14, null
  br i1 %15, label %16, label %18

16:                                               ; preds = %13
  %17 = load ptr, ptr %5, align 8, !tbaa !22
  store i32 1, ptr %17, align 4, !tbaa !15
  store ptr null, ptr %3, align 8
  br label %34

18:                                               ; preds = %13
  call void @llvm.lifetime.start.p0(i64 8, ptr %6) #11
  %19 = load ptr, ptr %4, align 8, !tbaa !64
  store ptr %19, ptr %6, align 8, !tbaa !23
  %20 = load ptr, ptr %6, align 8, !tbaa !23
  %21 = icmp eq ptr %20, null
  br i1 %21, label %24, label %22

22:                                               ; preds = %18
  %23 = getelementptr inbounds i8, ptr %20, i64 16
  br label %24

24:                                               ; preds = %22, %18
  %25 = phi ptr [ %23, %22 ], [ null, %18 ]
  %26 = getelementptr inbounds nuw %"class.icu_77::IcuCApiHelper.0", ptr %25, i32 0, i32 0
  %27 = load i32, ptr %26, align 4, !tbaa !33
  %28 = icmp ne i32 %27, 1178881536
  br i1 %28, label %29, label %31

29:                                               ; preds = %24
  %30 = load ptr, ptr %5, align 8, !tbaa !22
  store i32 3, ptr %30, align 4, !tbaa !15
  store ptr null, ptr %3, align 8
  store i32 1, ptr %7, align 4
  br label %33

31:                                               ; preds = %24
  %32 = load ptr, ptr %6, align 8, !tbaa !23
  store ptr %32, ptr %3, align 8
  store i32 1, ptr %7, align 4
  br label %33

33:                                               ; preds = %31, %29
  call void @llvm.lifetime.end.p0(i64 8, ptr %6) #11
  br label %34

34:                                               ; preds = %33, %16, %12
  %35 = load ptr, ptr %3, align 8
  ret ptr %35
}

; Function Attrs: mustprogress uwtable
define i32 @unumrf_resultGetIdentityResult_77(ptr noundef %0, ptr noundef %1) #1 {
  %3 = alloca i32, align 4
  %4 = alloca ptr, align 8
  %5 = alloca ptr, align 8
  %6 = alloca ptr, align 8
  %7 = alloca i32, align 4
  store ptr %0, ptr %4, align 8, !tbaa !64
  store ptr %1, ptr %5, align 8, !tbaa !22
  call void @llvm.lifetime.start.p0(i64 8, ptr %6) #11
  %8 = load ptr, ptr %4, align 8, !tbaa !64
  %9 = load ptr, ptr %5, align 8, !tbaa !22
  %10 = call noundef ptr @_ZN6icu_7713IcuCApiHelperI21UFormattedNumberRangeNS_6number4impl25UFormattedNumberRangeImplELi1178881536EE8validateEPKS1_R10UErrorCode(ptr noundef %8, ptr noundef nonnull align 4 dereferenceable(4) %9)
  store ptr %10, ptr %6, align 8, !tbaa !23
  %11 = load ptr, ptr %5, align 8, !tbaa !22
  %12 = load i32, ptr %11, align 4, !tbaa !15
  %13 = call noundef signext i8 @_ZL9U_FAILURE10UErrorCode(i32 noundef %12)
  %14 = icmp ne i8 %13, 0
  br i1 %14, label %15, label %16

15:                                               ; preds = %2
  store i32 3, ptr %3, align 4
  store i32 1, ptr %7, align 4
  br label %21

16:                                               ; preds = %2
  %17 = load ptr, ptr %6, align 8, !tbaa !23
  %18 = getelementptr inbounds nuw %"struct.icu_77::number::impl::UFormattedNumberRangeImpl", ptr %17, i32 0, i32 4
  %19 = getelementptr inbounds nuw %"class.icu_77::number::impl::UFormattedNumberRangeData", ptr %18, i32 0, i32 4
  %20 = load i32, ptr %19, align 8, !tbaa !95
  store i32 %20, ptr %3, align 4
  store i32 1, ptr %7, align 4
  br label %21

21:                                               ; preds = %16, %15
  call void @llvm.lifetime.end.p0(i64 8, ptr %6) #11
  %22 = load i32, ptr %3, align 4
  ret i32 %22
}