; Function Attrs: mustprogress nofree norecurse nosync nounwind willreturn memory(argmem: readwrite) uwtable
define i32 @unumrf_resultGetIdentityResult_77(ptr noundef readonly %0, ptr noundef captures(none) %1) local_unnamed_addr #11 {
  %3 = load i32, ptr %1, align 4, !tbaa !13
  %4 = icmp slt i32 %3, 1
  br i1 %4, label %5, label %_ZN6icu_7713IcuCApiHelperI21UFormattedNumberRangeNS_6number4impl25UFormattedNumberRangeImplELi1178881536EE8validateEPKS1_R10UErrorCode.exit.thread

5:                                                ; preds = %2
  %6 = icmp eq ptr %0, null
  br i1 %6, label %.sink.split.i, label %7

7:                                                ; preds = %5
  %8 = getelementptr inbounds nuw i8, ptr %0, i64 16
  %9 = load i32, ptr %8, align 4, !tbaa !20
  %.not9.i = icmp eq i32 %9, 1178881536
  br i1 %.not9.i, label %_ZN6icu_7713IcuCApiHelperI21UFormattedNumberRangeNS_6number4impl25UFormattedNumberRangeImplELi1178881536EE8validateEPKS1_R10UErrorCode.exit, label %.sink.split.i

.sink.split.i:                                    ; preds = %7, %5
  %.sink.i = phi i32 [ 1, %5 ], [ 3, %7 ]
  store i32 %.sink.i, ptr %1, align 4, !tbaa !13
  br label %_ZN6icu_7713IcuCApiHelperI21UFormattedNumberRangeNS_6number4impl25UFormattedNumberRangeImplELi1178881536EE8validateEPKS1_R10UErrorCode.exit.thread

_ZN6icu_7713IcuCApiHelperI21UFormattedNumberRangeNS_6number4impl25UFormattedNumberRangeImplELi1178881536EE8validateEPKS1_R10UErrorCode.exit: ; preds = %7
  %10 = getelementptr inbounds nuw i8, ptr %0, i64 496
  %11 = load i32, ptr %10, align 8, !tbaa !83
  br label %_ZN6icu_7713IcuCApiHelperI21UFormattedNumberRangeNS_6number4impl25UFormattedNumberRangeImplELi1178881536EE8validateEPKS1_R10UErrorCode.exit.thread

_ZN6icu_7713IcuCApiHelperI21UFormattedNumberRangeNS_6number4impl25UFormattedNumberRangeImplELi1178881536EE8validateEPKS1_R10UErrorCode.exit.thread: ; preds = %.sink.split.i, %2, %_ZN6icu_7713IcuCApiHelperI21UFormattedNumberRangeNS_6number4impl25UFormattedNumberRangeImplELi1178881536EE8validateEPKS1_R10UErrorCode.exit
  %.0 = phi i32 [ %11, %_ZN6icu_7713IcuCApiHelperI21UFormattedNumberRangeNS_6number4impl25UFormattedNumberRangeImplELi1178881536EE8validateEPKS1_R10UErrorCode.exit ], [ 3, %2 ], [ 3, %.sink.split.i ]
  ret i32 %.0
}